; Function Attrs: mustprogress nofree nounwind willreturn memory(write, argmem: readwrite) uwtable
define noundef zeroext i1 @_ZN3vcg10trackutils8HitHyperENS_6Point3IfEEfS2_NS_6Plane3IfLb1EEES2_RS2_(<2 x float> %0, float %1, float noundef %2, <2 x float> %3, float %4, <2 x float> %5, <2 x float> %6, ptr nocapture noundef readonly byval(%"class.vcg::Point3") align 8 %7, ptr nocapture noundef nonnull writeonly align 4 dereferenceable(12) %8) local_unnamed_addr #5 {
  %10 = load <2 x float>, ptr %7, align 8
  %11 = getelementptr inbounds i8, ptr %7, i64 8
  %12 = load float, ptr %11, align 8
  %13 = shufflevector <2 x float> %0, <2 x float> poison, <2 x i32> zeroinitializer
  %14 = shufflevector <2 x float> %10, <2 x float> %3, <2 x i32> <i32 0, i32 2>
  %15 = fsub <2 x float> %13, %14
  %16 = shufflevector <2 x float> %0, <2 x float> poison, <2 x i32> <i32 1, i32 1>
  %17 = shufflevector <2 x float> %10, <2 x float> %3, <2 x i32> <i32 1, i32 3>
  %18 = fsub <2 x float> %16, %17
  %19 = insertelement <2 x float> poison, float %1, i64 0
  %20 = shufflevector <2 x float> %19, <2 x float> poison, <2 x i32> zeroinitializer
  %21 = insertelement <2 x float> poison, float %12, i64 0
  %22 = insertelement <2 x float> %21, float %4, i64 1
  %23 = fsub <2 x float> %20, %22
  %24 = fmul <2 x float> %18, %18
  %25 = tail call <2 x float> @llvm.fmuladd.v2f32(<2 x float> %15, <2 x float> %15, <2 x float> %24)
  %26 = tail call <2 x float> @llvm.fmuladd.v2f32(<2 x float> %23, <2 x float> %23, <2 x float> %25)
  %27 = tail call <2 x float> @llvm.sqrt.v2f32(<2 x float> %26)
  %28 = extractelement <2 x float> %27, i64 0
  %29 = extractelement <2 x float> %27, i64 1
  %30 = fdiv float %28, %29
  %31 = fmul float %2, %2
  %32 = fmul float %31, 5.000000e-01
  %33 = fmul float %30, -4.000000e+00
  %34 = fmul float %32, %33
  %35 = tail call float @llvm.fmuladd.f32(float %28, float %28, float %34)
  %36 = fcmp ogt float %35, 0.000000e+00
  br i1 %36, label %cdce.end, label %79

cdce.end:                                         ; preds = %9
  %37 = tail call noundef float @sqrtf(float noundef %35) #34
  %38 = fsub float %28, %37
  %39 = fmul float %30, 2.000000e+00
  %40 = fdiv float %38, %39
  %41 = fdiv float %32, %40
  %42 = fsub <2 x float> %10, %0
  %43 = fsub float %12, %1
  %44 = fmul <2 x float> %42, %42
  %45 = extractelement <2 x float> %44, i64 1
  %46 = extractelement <2 x float> %42, i64 0
  %47 = tail call float @llvm.fmuladd.f32(float %46, float %46, float %45)
  %48 = tail call float @llvm.fmuladd.f32(float %43, float %43, float %47)
  %sqrt.i = tail call float @llvm.sqrt.f32(float %48)
  %49 = fcmp ogt float %sqrt.i, 0.000000e+00
  %50 = insertelement <2 x float> poison, float %sqrt.i, i64 0
  %51 = shufflevector <2 x float> %50, <2 x float> poison, <2 x i32> zeroinitializer
  %52 = fdiv <2 x float> %42, %51
  %53 = fdiv float %43, %sqrt.i
  %.sroa.073.0 = select i1 %49, <2 x float> %52, <2 x float> %42
  %.sroa.780.0 = select i1 %49, float %53, float %43
  %.sroa.082.4.vec.extract = extractelement <2 x float> %5, i64 1
  %.sroa.2.12.vec.extract = extractelement <2 x float> %6, i64 1
  %54 = fmul <2 x float> %6, %6
  %55 = extractelement <2 x float> %54, i64 0
  %56 = tail call float @llvm.fmuladd.f32(float %.sroa.082.4.vec.extract, float %.sroa.082.4.vec.extract, float %55)
  %57 = tail call float @llvm.fmuladd.f32(float %.sroa.2.12.vec.extract, float %.sroa.2.12.vec.extract, float %56)
  %sqrt.i47 = tail call float @llvm.sqrt.f32(float %57)
  %58 = fcmp ogt float %sqrt.i47, 0.000000e+00
  %59 = fdiv float %.sroa.2.12.vec.extract, %sqrt.i47
  %.sroa.7.0 = select i1 %58, float %59, float %.sroa.2.12.vec.extract
  %60 = fmul float %41, %.sroa.780.0
  %61 = fadd float %60, %1
  %62 = fmul float %.sroa.7.0, %40
  %63 = shufflevector <2 x float> %5, <2 x float> %6, <2 x i32> <i32 1, i32 2>
  %64 = insertelement <2 x float> poison, float %sqrt.i47, i64 0
  %65 = shufflevector <2 x float> %64, <2 x float> poison, <2 x i32> zeroinitializer
  %66 = fdiv <2 x float> %63, %65
  %67 = insertelement <2 x i1> poison, i1 %58, i64 0
  %68 = shufflevector <2 x i1> %67, <2 x i1> poison, <2 x i32> zeroinitializer
  %69 = select <2 x i1> %68, <2 x float> %66, <2 x float> %63
  %70 = insertelement <2 x float> poison, float %41, i64 0
  %71 = shufflevector <2 x float> %70, <2 x float> poison, <2 x i32> zeroinitializer
  %72 = fmul <2 x float> %71, %.sroa.073.0
  %73 = fadd <2 x float> %72, %0
  %74 = insertelement <2 x float> poison, float %40, i64 0
  %75 = shufflevector <2 x float> %74, <2 x float> poison, <2 x i32> zeroinitializer
  %76 = fmul <2 x float> %69, %75
  %77 = fadd <2 x float> %76, %73
  %78 = fadd float %62, %61
  store <2 x float> %77, ptr %8, align 4
  %.sroa.214.0..sroa_idx = getelementptr inbounds i8, ptr %8, i64 8
  store float %78, ptr %.sroa.214.0..sroa_idx, align 4
  br label %79

79:                                               ; preds = %9, %cdce.end
  ret i1 %36
}